target datalayout = "e-m:e-p270:32:32-p271:32:32-p272:64:64-i64:64-i128:128-f80:128-n8:16:32:64-S128"
target triple = "x86_64-pc-linux-gnu"

%struct.HMAC_params = type { ptr, ptr, ptr, i32, i32, i32 }

@Curl_HMAC_MD5 = external constant %struct.HMAC_params, align 8

; Function Attrs: nounwind uwtable
define hidden i32 @Curl_ntlm_core_mk_lmv2_resp(ptr noundef %0, ptr noundef %1, ptr noundef %2, ptr noundef %3) #0 {
  %5 = alloca i32, align 4
  %6 = alloca ptr, align 8
  %7 = alloca ptr, align 8
  %8 = alloca ptr, align 8
  %9 = alloca ptr, align 8
  %10 = alloca [16 x i8], align 16
  %11 = alloca [16 x i8], align 16
  %12 = alloca i32, align 4
  %13 = alloca i32, align 4
  store ptr %0, ptr %6, align 8, !tbaa !3
  store ptr %1, ptr %7, align 8, !tbaa !3
  store ptr %2, ptr %8, align 8, !tbaa !3
  store ptr %3, ptr %9, align 8, !tbaa !3
  call void @llvm.lifetime.start.p0(i64 16, ptr %10) #7
  call void @llvm.lifetime.start.p0(i64 16, ptr %11) #7
  call void @llvm.lifetime.start.p0(i64 4, ptr %12) #7
  store i32 0, ptr %12, align 4, !tbaa !13
  %14 = getelementptr inbounds [16 x i8], ptr %10, i64 0, i64 0
  %15 = load ptr, ptr %8, align 8, !tbaa !3
  call void @llvm.memcpy.p0.p0.i64(ptr align 16 %14, ptr align 1 %15, i64 8, i1 false)
  %16 = getelementptr inbounds [16 x i8], ptr %10, i64 0, i64 8
  %17 = load ptr, ptr %7, align 8, !tbaa !3
  call void @llvm.memcpy.p0.p0.i64(ptr align 8 %16, ptr align 1 %17, i64 8, i1 false)
  %18 = load ptr, ptr %6, align 8, !tbaa !3
  %19 = getelementptr inbounds [16 x i8], ptr %10, i64 0, i64 0
  %20 = getelementptr inbounds [16 x i8], ptr %11, i64 0, i64 0
  %21 = call i32 @Curl_hmacit(ptr noundef @Curl_HMAC_MD5, ptr noundef %18, i64 noundef 16, ptr noundef %19, i64 noundef 16, ptr noundef %20)
  store i32 %21, ptr %12, align 4, !tbaa !13
  %22 = load i32, ptr %12, align 4, !tbaa !13
  %23 = icmp ne i32 %22, 0
  br i1 %23, label %24, label %26

24:                                               ; preds = %4
  %25 = load i32, ptr %12, align 4, !tbaa !13
  store i32 %25, ptr %5, align 4
  store i32 1, ptr %13, align 4
  br label %33

26:                                               ; preds = %4
  %27 = load ptr, ptr %9, align 8, !tbaa !3
  %28 = getelementptr inbounds [16 x i8], ptr %11, i64 0, i64 0
  call void @llvm.memcpy.p0.p0.i64(ptr align 1 %27, ptr align 16 %28, i64 16, i1 false)
  %29 = load ptr, ptr %9, align 8, !tbaa !3
  %30 = getelementptr inbounds i8, ptr %29, i64 16
  %31 = load ptr, ptr %7, align 8, !tbaa !3
  call void @llvm.memcpy.p0.p0.i64(ptr align 1 %30, ptr align 1 %31, i64 8, i1 false)
  %32 = load i32, ptr %12, align 4, !tbaa !13
  store i32 %32, ptr %5, align 4
  store i32 1, ptr %13, align 4
  br label %33

33:                                               ; preds = %26, %24
  call void @llvm.lifetime.end.p0(i64 4, ptr %12) #7
  call void @llvm.lifetime.end.p0(i64 16, ptr %11) #7
  call void @llvm.lifetime.end.p0(i64 16, ptr %10) #7
  %34 = load i32, ptr %5, align 4
  ret i32 %34
}